target datalayout = "e-m:e-p270:32:32-p271:32:32-p272:64:64-i64:64-i128:128-f80:128-n8:16:32:64-S128"
target triple = "x86_64-pc-linux-gnu"

@clearinfos = internal global i32 0, align 4
@replaceinfos = internal global i32 0, align 4
@infoname = internal global ptr null, align 8
@infovalue = internal global ptr null, align 8

; Function Attrs: nounwind uwtable
define internal void @apply_infos(ptr noundef %0) #0 {
  %2 = alloca ptr, align 8
  store ptr %0, ptr %2, align 8, !tbaa !37
  %3 = load i32, ptr @clearinfos, align 4, !tbaa !11
  %4 = icmp ne i32 %3, 0
  br i1 %4, label %5, label %8

5:                                                ; preds = %1
  %6 = load ptr, ptr %2, align 8, !tbaa !37
  %7 = call i32 @hwloc_modify_infos(ptr noundef %6, i64 noundef 8, ptr noundef null, ptr noundef null)
  br label %8

8:                                                ; preds = %5, %1
  %9 = load ptr, ptr @infoname, align 8, !tbaa !4
  %10 = icmp ne ptr %9, null
  br i1 %10, label %11, label %33

11:                                               ; preds = %8
  %12 = load i32, ptr @replaceinfos, align 4, !tbaa !11
  %13 = icmp ne i32 %12, 0
  br i1 %13, label %14, label %27

14:                                               ; preds = %11
  %15 = load ptr, ptr @infovalue, align 8, !tbaa !4
  %16 = icmp ne ptr %15, null
  br i1 %16, label %17, label %22

17:                                               ; preds = %14
  %18 = load ptr, ptr %2, align 8, !tbaa !37
  %19 = load ptr, ptr @infoname, align 8, !tbaa !4
  %20 = load ptr, ptr @infovalue, align 8, !tbaa !4
  %21 = call i32 @hwloc_modify_infos(ptr noundef %18, i64 noundef 4, ptr noundef %19, ptr noundef %20)
  br label %26

22:                                               ; preds = %14
  %23 = load ptr, ptr %2, align 8, !tbaa !37
  %24 = load ptr, ptr @infoname, align 8, !tbaa !4
  %25 = call i32 @hwloc_modify_infos(ptr noundef %23, i64 noundef 8, ptr noundef %24, ptr noundef null)
  br label %26

26:                                               ; preds = %22, %17
  br label %32

27:                                               ; preds = %11
  %28 = load ptr, ptr %2, align 8, !tbaa !37
  %29 = load ptr, ptr @infoname, align 8, !tbaa !4
  %30 = load ptr, ptr @infovalue, align 8, !tbaa !4
  %31 = call i32 @hwloc_modify_infos(ptr noundef %28, i64 noundef 1, ptr noundef %29, ptr noundef %30)
  br label %32

32:                                               ; preds = %27, %26
  br label %33

33:                                               ; preds = %32, %8
  ret void
}