; Function Attrs: nounwind uwtable
define internal fastcc void @apply_infos(ptr noundef %0) unnamed_addr #13 {
  %.b = load i1, ptr @clearinfos, align 4
  br i1 %.b, label %2, label %4

2:                                                ; preds = %1
  %3 = tail call i32 @hwloc_modify_infos(ptr noundef %0, i64 noundef 8, ptr noundef null, ptr noundef null) #27
  br label %4

4:                                                ; preds = %2, %1
  %5 = load ptr, ptr @infoname, align 8, !tbaa !4
  %.not = icmp eq ptr %5, null
  br i1 %.not, label %15, label %6

6:                                                ; preds = %4
  %.b5 = load i1, ptr @replaceinfos, align 4
  %7 = load ptr, ptr @infovalue, align 8, !tbaa !4
  br i1 %.b5, label %8, label %13

8:                                                ; preds = %6
  %.not6 = icmp eq ptr %7, null
  br i1 %.not6, label %11, label %9

9:                                                ; preds = %8
  %10 = tail call i32 @hwloc_modify_infos(ptr noundef %0, i64 noundef 4, ptr noundef nonnull %5, ptr noundef nonnull %7) #27
  br label %15

11:                                               ; preds = %8
  %12 = tail call i32 @hwloc_modify_infos(ptr noundef %0, i64 noundef 8, ptr noundef nonnull %5, ptr noundef null) #27
  br label %15

13:                                               ; preds = %6
  %14 = tail call i32 @hwloc_modify_infos(ptr noundef %0, i64 noundef 1, ptr noundef nonnull %5, ptr noundef %7) #27
  br label %15

15:                                               ; preds = %13, %11, %9, %4
  ret void
}